(lp0
(dp1
S'nagg'
p2
I2
sS'b'
p3
I2
sS'd'
p4
cnumpy.core.multiarray
scalar
p5
(cnumpy
dtype
p6
(S'f8'
p7
I0
I1
tp8
Rp9
(I3
S'<'
p10
NNNI-1
I-1
I0
tp11
bS'\xc3y\x8d\xe2\xd5\x14\xa9?'
p12
tp13
Rp14
sS'n'
p15
I4
sa(dp16
g2
I2
sg3
I2
sg4
g5
(g9
S'\x88\xaa]\xb38r3?'
p17
tp18
Rp19
sg15
I4
sa(dp20
g2
I2
sg3
I2
sg4
g5
(g9
S'2\x99\x9f\xf9\xef\xcb\x94?'
p21
tp22
Rp23
sg15
I4
sa(dp24
g2
I2
sg3
I2
sg4
g5
(g9
S'\xee\xdb\xde\xb8\xdeT\xab?'
p25
tp26
Rp27
sg15
I4
sa(dp28
g2
I2
sg3
I2
sg4
g5
(g9
S'\x84\x83\xadj\xde\x1a\xa2?'
p29
tp30
Rp31
sg15
I4
sa(dp32
g2
I2
sg3
I2
sg4
g5
(g9
S'ZuH\xd72b\x9c?'
p33
tp34
Rp35
sg15
I4
sa(dp36
g2
I2
sg3
I2
sg4
g5
(g9
S'\x90Lg\xe0\x0cNY\xbf'
p37
tp38
Rp39
sg15
I4
sa(dp40
g2
I2
sg3
I2
sg4
g5
(g9
S'\xfb\xebb6\x1bqg\xbf'
p41
tp42
Rp43
sg15
I4
sa(dp44
g2
I2
sg3
I2
sg4
g5
(g9
S'(l\x05\x97\xa6\xfdu\xbf'
p45
tp46
Rp47
sg15
I4
sa(dp48
g2
I2
sg3
I2
sg4
g5
(g9
S'`T\x17\xd4\xe5\xc71?'
p49
tp50
Rp51
sg15
I4
sa(dp52
g2
I2
sg3
I2
sg4
g5
(g9
S'\x12\x13\x19bL\x03U?'
p53
tp54
Rp55
sg15
I8
sa(dp56
g2
I2
sg3
I2
sg4
g5
(g9
S'8M\x1de?J$?'
p57
tp58
Rp59
sg15
I8
sa(dp60
g2
I2
sg3
I2
sg4
g5
(g9
S'W\xc79e\x95\n\x81?'
p61
tp62
Rp63
sg15
I8
sa(dp64
g2
I2
sg3
I2
sg4
g5
(g9
S'\x0eo^_\xe4Md?'
p65
tp66
Rp67
sg15
I8
sa(dp68
g2
I2
sg3
I2
sg4
g5
(g9
S'\xb8k~\xdc\xe29a?'
p69
tp70
Rp71
sg15
I8
sa(dp72
g2
I2
sg3
I2
sg4
g5
(g9
S'\xbcPx\xd1\x97\xdek?'
p73
tp74
Rp75
sg15
I8
sa(dp76
g2
I2
sg3
I2
sg4
g5
(g9
S'b9&8\x0b,O?'
p77
tp78
Rp79
sg15
I8
sa(dp80
g2
I2
sg3
I2
sg4
g5
(g9
S'\x00\x00\x00\x00\x00\x00\x00\x00'
p81
tp82
Rp83
sg15
I8
sa(dp84
g2
I2
sg3
I2
sg4
g5
(g9
S'\xd7w\xfe\x98KQJ\xbf'
p85
tp86
Rp87
sg15
I8
sa(dp88
g2
I2
sg3
I2
sg4
g5
(g9
S'\x03\xb6\xbc\x96\xdf\x00n?'
p89
tp90
Rp91
sg15
I8
sa(dp92
g2
I2
sg3
I2
sg4
g5
(g9
S'\xee\xb5\xf2B+\xbc5?'
p93
tp94
Rp95
sg15
I16
sa(dp96
g2
I2
sg3
I2
sg4
g5
(g9
S'\xc8\xbf\xf1\xc3,\x8f4?'
p97
tp98
Rp99
sg15
I16
sa(dp100
g2
I2
sg3
I2
sg4
g5
(g9
S'k\xb0@H\xbf\xaf$?'
p101
tp102
Rp103
sg15
I16
sa(dp104
g2
I2
sg3
I2
sg4
g5
(g9
S'\x1b\x1b\xf1\xa4\x03\x94Y?'
p105
tp106
Rp107
sg15
I16
sa(dp108
g2
I2
sg3
I2
sg4
g5
(g9
S'\xaa\x84\xf1\x17\x81\x18T?'
p109
tp110
Rp111
sg15
I16
sa(dp112
g2
I2
sg3
I2
sg4
g5
(g9
S'\x10\x80\xc1\xddP\xca\xbd>'
p113
tp114
Rp115
sg15
I16
sa(dp116
g2
I2
sg3
I2
sg4
g5
(g9
S'\r\xce\xb6\xf6\x8b\xf7F?'
p117
tp118
Rp119
sg15
I16
sa(dp120
g2
I2
sg3
I2
sg4
g5
(g9
S'\xd0\x1b34f\x04f?'
p121
tp122
Rp123
sg15
I16
sa(dp124
g2
I2
sg3
I2
sg4
g5
(g9
S'\xa7JHN\xc50\x16?'
p125
tp126
Rp127
sg15
I16
sa(dp128
g2
I2
sg3
I2
sg4
g5
(g9
S'\xd1\x1dz\xd2`&R?'
p129
tp130
Rp131
sg15
I16
sa(dp132
g2
I2
sg3
I8
sg4
g5
(g9
S'@ei\x0c\x01\x04\xcd>'
p133
tp134
Rp135
sg15
I16
sa(dp136
g2
I2
sg3
I8
sg4
g5
(g9
S'8\x8a\x19\x01.R\xee>'
p137
tp138
Rp139
sg15
I16
sa(dp140
g2
I2
sg3
I8
sg4
g5
(g9
S'\x80\xaf\xed\x16S:\xda>'
p141
tp142
Rp143
sg15
I16
sa(dp144
g2
I2
sg3
I8
sg4
g5
(g9
S'@\xb4\x0e\x9b:\x03\xd7>'
p145
tp146
Rp147
sg15
I16
sa(dp148
g2
I2
sg3
I8
sg4
g5
(g9
S'@x\x8e\xfbD@\xdb>'
p149
tp150
Rp151
sg15
I16
sa(dp152
g2
I2
sg3
I8
sg4
g5
(g9
S'\xe0D\x00b\xb3\x14\xdf>'
p153
tp154
Rp155
sg15
I16
sa(dp156
g2
I2
sg3
I8
sg4
g5
(g9
S'\xb0D\xb0\xacJ\xb3\xd5>'
p157
tp158
Rp159
sg15
I16
sa(dp160
g2
I2
sg3
I8
sg4
g5
(g9
S' L\xfb\x05Q\x01\xd7>'
p161
tp162
Rp163
sg15
I16
sa(dp164
g2
I2
sg3
I8
sg4
g5
(g9
S'\xb0G\xb1\t\xfd\x96\xdf>'
p165
tp166
Rp167
sg15
I16
sa(dp168
g2
I2
sg3
I8
sg4
g5
(g9
S'\xa8\xb1-\xf5j\xfe\xf0>'
p169
tp170
Rp171
sg15
I16
sa(dp172
g2
I8
sg3
I2
sg4
g5
(g9
S'^\xcd!C\x08\xf7\xa3\xbf'
p173
tp174
Rp175
sg15
I16
sa(dp176
g2
I8
sg3
I2
sg4
g5
(g9
S'!\xfd@\x89`\x84\xa2\xbf'
p177
tp178
Rp179
sg15
I16
sa(dp180
g2
I8
sg3
I2
sg4
g5
(g9
S'hT\xea\xaf\x1e\xb9\xa4\xbf'
p181
tp182
Rp183
sg15
I16
sa(dp184
g2
I8
sg3
I2
sg4
g5
(g9
S'\x8b\xa4\x84\xad\xfd/\xa8\xbf'
p185
tp186
Rp187
sg15
I16
sa(dp188
g2
I8
sg3
I2
sg4
g5
(g9
S'\xde\xf1l\xfek\xd3\xad\xbf'
p189
tp190
Rp191
sg15
I16
sa(dp192
g2
I8
sg3
I2
sg4
g5
(g9
S'\x1aW\xfe\x05\xc9:\xa1\xbf'
p193
tp194
Rp195
sg15
I16
sa(dp196
g2
I8
sg3
I2
sg4
g5
(g9
S'\xbc\x0c\x03\xb7v\xda\xa4\xbf'
p197
tp198
Rp199
sg15
I16
sa(dp200
g2
I8
sg3
I2
sg4
g5
(g9
S'.\x04\x7f+\x92\xd1\xa7\xbf'
p201
tp202
Rp203
sg15
I16
sa(dp204
g2
I8
sg3
I2
sg4
g5
(g9
S'\xe3^\x0f\xedC\x8e\xa3\xbf'
p205
tp206
Rp207
sg15
I16
sa(dp208
g2
I8
sg3
I2
sg4
g5
(g9
S"\x83\xd6\xa7'u\x81\x98\xbf"
p209
tp210
Rp211
sg15
I16
sa(dp212
g2
I8
sg3
I8
sg4
g5
(g9
S'\x8e\x84\xb9J9\x94\xa5\xbf'
p213
tp214
Rp215
sg15
I16
sa(dp216
g2
I8
sg3
I8
sg4
g5
(g9
S'\xde\x9c\xc8\x12\xc7\xfd\xb2\xbf'
p217
tp218
Rp219
sg15
I16
sa(dp220
g2
I8
sg3
I8
sg4
g5
(g9
S'e\x80\x7f\x14\xc9\x02\xb2\xbf'
p221
tp222
Rp223
sg15
I16
sa(dp224
g2
I8
sg3
I8
sg4
g5
(g9
S'\xb5gE\x81\x94o\xa8\xbf'
p225
tp226
Rp227
sg15
I16
sa(dp228
g2
I8
sg3
I8
sg4
g5
(g9
S'\xe1\xae\x070\xf5\xf9\x9f\xbf'
p229
tp230
Rp231
sg15
I16
sa(dp232
g2
I8
sg3
I8
sg4
g5
(g9
S'\x8d\xd8\xe2\x9d6\xe3\xb0\xbf'
p233
tp234
Rp235
sg15
I16
sa(dp236
g2
I8
sg3
I8
sg4
g5
(g9
S'\xa2\x840\xbbti\xac\xbf'
p237
tp238
Rp239
sg15
I16
sa(dp240
g2
I8
sg3
I8
sg4
g5
(g9
S'\x0e\xf6\xfb\xbb\x15\xa3\x99\xbf'
p241
tp242
Rp243
sg15
I16
sa(dp244
g2
I8
sg3
I8
sg4
g5
(g9
S'\n\xf7\x8c\xa9\xee\x18\xb8\xbf'
p245
tp246
Rp247
sg15
I16
sa(dp248
g2
I8
sg3
I8
sg4
g5
(g9
S"\xf2'j\xfd2\xbdd?"
p249
tp250
Rp251
sg15
I16
sa(dp252
g2
I2
sg3
I8
sg4
g5
(g9
S'\xe0\x90\xba.\xd5\x06\xa8>'
p253
tp254
Rp255
sg15
I32
sa(dp256
g2
I2
sg3
I8
sg4
g5
(g9
S'\xd0\xee\xfa\x9e\xc0U\xbb>'
p257
tp258
Rp259
sg15
I32
sa(dp260
g2
I2
sg3
I8
sg4
g5
(g9
S'\xc8\xd8s\x05\xb3\xe7\xa5>'
p261
tp262
Rp263
sg15
I32
sa(dp264
g2
I2
sg3
I8
sg4
g5
(g9
S'\x10\xa8\x8f\x96Y\x8c\x93>'
p265
tp266
Rp267
sg15
I32
sa(dp268
g2
I2
sg3
I8
sg4
g5
(g9
S'\xa8\x8c\x7f\xbc\x86w\xd8>'
p269
tp270
Rp271
sg15
I32
sa(dp272
g2
I2
sg3
I8
sg4
g5
(g9
S'(5\xe1\xa8\x0b\xac\xd9>'
p273
tp274
Rp275
sg15
I32
sa(dp276
g2
I2
sg3
I8
sg4
g5
(g9
S't\x1dL${\xb3\xb2>'
p277
tp278
Rp279
sg15
I32
sa(dp280
g2
I2
sg3
I8
sg4
g5
(g9
S'\xc0K#\xa6>,\xbb>'
p281
tp282
Rp283
sg15
I32
sa(dp284
g2
I2
sg3
I8
sg4
g5
(g9
S'\x00E#`\x82\xc0\xd0>'
p285
tp286
Rp287
sg15
I32
sa(dp288
g2
I2
sg3
I8
sg4
g5
(g9
S'\xa4\x15\xc4\xe0s"\xb1>'
p289
tp290
Rp291
sg15
I32
sa(dp292
g2
I8
sg3
I8
sg4
g5
(g9
S'1(\x9e\x88\xfa\x95}\xbf'
p293
tp294
Rp295
sg15
I32
sa(dp296
g2
I8
sg3
I8
sg4
g5
(g9
S'%T\xc9\xb0eov\xbf'
p297
tp298
Rp299
sg15
I32
sa(dp300
g2
I8
sg3
I8
sg4
g5
(g9
S'!\x1f\xb2s\xc8\xb9h\xbf'
p301
tp302
Rp303
sg15
I32
sa(dp304
g2
I8
sg3
I8
sg4
g5
(g9
S'\xaf\xd4\xb8\x0b\xf5nt\xbf'
p305
tp306
Rp307
sg15
I32
sa(dp308
g2
I8
sg3
I8
sg4
g5
(g9
S'\xf2\xa0\x86\xf8\x97,s\xbf'
p309
tp310
Rp311
sg15
I32
sa(dp312
g2
I8
sg3
I8
sg4
g5
(g9
S'\x8e\x7f~\xc2\x97\x95c\xbf'
p313
tp314
Rp315
sg15
I32
sa(dp316
g2
I8
sg3
I8
sg4
g5
(g9
S'HW\xee\xe9m\x8c\x7f\xbf'
p317
tp318
Rp319
sg15
I32
sa(dp320
g2
I8
sg3
I8
sg4
g5
(g9
S'<\xb2Fl\xcd\x9bS?'
p321
tp322
Rp323
sg15
I32
sa(dp324
g2
I8
sg3
I8
sg4
g5
(g9
S'8\x16\x9b\xb8\xb1$\x8e\xbf'
p325
tp326
Rp327
sg15
I32
sa(dp328
g2
I8
sg3
I8
sg4
g5
(g9
S'\x9f\x9d\x1b\x04t\x9dw\xbf'
p329
tp330
Rp331
sg15
I32
sa(dp332
g2
I2
sg3
I8
sg4
g5
(g9
S'@\xe8\xee\xce\xf2\t\x83>'
p333
tp334
Rp335
sg15
I64
sa(dp336
g2
I2
sg3
I8
sg4
g5
(g9
S'\x80\xccJ8\x99f{>'
p337
tp338
Rp339
sg15
I64
sa(dp340
g2
I2
sg3
I8
sg4
g5
(g9
S'\xb8g\n\xed#\xdc\x8f>'
p341
tp342
Rp343
sg15
I64
sa(dp344
g2
I2
sg3
I8
sg4
g5
(g9
S'\xc0E\xf9\x91\xde\xfc\x91>'
p345
tp346
Rp347
sg15
I64
sa(dp348
g2
I2
sg3
I8
sg4
g5
(g9
S'`\x00n\x95\xe4\x9fp>'
p349
tp350
Rp351
sg15
I64
sa(dp352
g2
I2
sg3
I8
sg4
g5
(g9
S'p\x19Zv\x062\x81>'
p353
tp354
Rp355
sg15
I64
sa(dp356
g2
I2
sg3
I8
sg4
g5
(g9
S'\x10\xa9wGg\xc7\x92>'
p357
tp358
Rp359
sg15
I64
sa(dp360
g2
I2
sg3
I8
sg4
g5
(g9
S'\xf8\xa6X%3;\xae>'
p361
tp362
Rp363
sg15
I64
sa(dp364
g2
I2
sg3
I8
sg4
g5
(g9
S'\x02\x1d\xf2\xde\xf8\xb3\xc6>'
p365
tp366
Rp367
sg15
I64
sa(dp368
g2
I2
sg3
I8
sg4
g5
(g9
S'\xe0CQ\xec\x1c{B>'
p369
tp370
Rp371
sg15
I64
sa(dp372
g2
I2
sg3
I32
sg4
g5
(g9
S'\x00\xc7\x9b;F\x1eA>'
p373
tp374
Rp375
sg15
I64
sa(dp376
g2
I2
sg3
I32
sg4
g5
(g9
S'\x00YL\xbd\r\x17I>'
p377
tp378
Rp379
sg15
I64
sa(dp380
g2
I2
sg3
I32
sg4
g5
(g9
S'@+J\xf6vuR>'
p381
tp382
Rp383
sg15
I64
sa(dp384
g2
I2
sg3
I32
sg4
g5
(g9
S'\x00\x00\x00\x00\x00\x00\x00\x00'
p385
tp386
Rp387
sg15
I64
sa(dp388
g2
I2
sg3
I32
sg4
g5
(g9
S'\x00}\x1dPKf?>'
p389
tp390
Rp391
sg15
I64
sa(dp392
g2
I2
sg3
I32
sg4
g5
(g9
S'\x00\xaaU\x9b\xcf\x9b\x19>'
p393
tp394
Rp395
sg15
I64
sa(dp396
g2
I2
sg3
I32
sg4
g5
(g9
S'\xc0?\xb9\xb9\x13\x03e>'
p397
tp398
Rp399
sg15
I64
sa(dp400
g2
I2
sg3
I32
sg4
g5
(g9
S'\x80q+\xc0\x85\xaeY>'
p401
tp402
Rp403
sg15
I64
sa(dp404
g2
I2
sg3
I32
sg4
g5
(g9
S'\x00f5\x0b\xa5t\x1f>'
p405
tp406
Rp407
sg15
I64
sa(dp408
g2
I2
sg3
I32
sg4
g5
(g9
S'@S\xde\x0f4\x88K>'
p409
tp410
Rp411
sg15
I64
sa(dp412
g2
I8
sg3
I8
sg4
g5
(g9
S'MM\xbf\xc25\xd1K?'
p413
tp414
Rp415
sg15
I64
sa(dp416
g2
I8
sg3
I8
sg4
g5
(g9
S'\xd0\xc02e\xa0\xe56?'
p417
tp418
Rp419
sg15
I64
sa(dp420
g2
I8
sg3
I8
sg4
g5
(g9
S'[\x86\r\xde\xb1XL?'
p421
tp422
Rp423
sg15
I64
sa(dp424
g2
I8
sg3
I8
sg4
g5
(g9
S'\xc5\x8ft\x10\xeeV9?'
p425
tp426
Rp427
sg15
I64
sa(dp428
g2
I8
sg3
I8
sg4
g5
(g9
S'\xa8\xe9\xde\x12\xcb?\x17?'
p429
tp430
Rp431
sg15
I64
sa(dp432
g2
I8
sg3
I8
sg4
g5
(g9
S"\xd8y,\x05'\xae??"
p433
tp434
Rp435
sg15
I64
sa(dp436
g2
I8
sg3
I8
sg4
g5
(g9
S'\x8bS\xa7\xb9JF\xf5>'
p437
tp438
Rp439
sg15
I64
sa(dp440
g2
I8
sg3
I8
sg4
g5
(g9
S'\xc9\x0f\xe9h\xbe\xcbC?'
p441
tp442
Rp443
sg15
I64
sa(dp444
g2
I8
sg3
I8
sg4
g5
(g9
S'\xf5\xd4|\xc6\xe3G9?'
p445
tp446
Rp447
sg15
I64
sa(dp448
g2
I8
sg3
I8
sg4
g5
(g9
S'\xd3\xc4\xaa\x84EjB?'
p449
tp450
Rp451
sg15
I64
sa(dp452
g2
I8
sg3
I32
sg4
g5
(g9
S'\x06(\x9aC\xf0n\xcc>'
p453
tp454
Rp455
sg15
I64
sa(dp456
g2
I8
sg3
I32
sg4
g5
(g9
S'\xac>R2\x96d\xe7>'
p457
tp458
Rp459
sg15
I64
sa(dp460
g2
I8
sg3
I32
sg4
g5
(g9
S'\x90\x1a\x11\x89\xab\xc2\xf4>'
p461
tp462
Rp463
sg15
I64
sa(dp464
g2
I8
sg3
I32
sg4
g5
(g9
S'\xdc&\xe2\xd0w*\x00?'
p465
tp466
Rp467
sg15
I64
sa(dp468
g2
I8
sg3
I32
sg4
g5
(g9
S'\xe2\x92\xf5\x9e\xf2\xd7\xfa>'
p469
tp470
Rp471
sg15
I64
sa(dp472
g2
I8
sg3
I32
sg4
g5
(g9
S'\xf8\xa7\xce\x19\xd7v\x00?'
p473
tp474
Rp475
sg15
I64
sa(dp476
g2
I8
sg3
I32
sg4
g5
(g9
S'\xf2\xf6\t\xac\xa8\x0f\x01?'
p477
tp478
Rp479
sg15
I64
sa(dp480
g2
I8
sg3
I32
sg4
g5
(g9
S'\xcc\xb1\x1aFcg\xf0>'
p481
tp482
Rp483
sg15
I64
sa(dp484
g2
I8
sg3
I32
sg4
g5
(g9
S'\x1b\xba\xdb$\xd5$\x01?'
p485
tp486
Rp487
sg15
I64
sa(dp488
g2
I8
sg3
I32
sg4
g5
(g9
S'\xd4\xbaa\x84jG\xfe>'
p489
tp490
Rp491
sg15
I64
sa(dp492
g2
I32
sg3
I8
sg4
g5
(g9
S'\x1a\xfa\xa8\xb0\x90s\xbb\xbf'
p493
tp494
Rp495
sg15
I64
sa(dp496
g2
I32
sg3
I8
sg4
g5
(g9
S'\x01 \xbfd\xfbs\xbb\xbf'
p497
tp498
Rp499
sg15
I64
sa(dp500
g2
I32
sg3
I8
sg4
g5
(g9
S'\xaa\xb3s\x0bH@\xc0\xbf'
p501
tp502
Rp503
sg15
I64
sa(dp504
g2
I32
sg3
I8
sg4
g5
(g9
S'\r\xc0\x96ie\x11\xc1\xbf'
p505
tp506
Rp507
sg15
I64
sa(dp508
g2
I32
sg3
I8
sg4
g5
(g9
S',\xb65\x92&a\xc0\xbf'
p509
tp510
Rp511
sg15
I64
sa(dp512
g2
I32
sg3
I8
sg4
g5
(g9
S'\xcf]L\x0f|Y\xc1\xbf'
p513
tp514
Rp515
sg15
I64
sa(dp516
g2
I32
sg3
I8
sg4
g5
(g9
S'\x17V\xd3sUM\xc2\xbf'
p517
tp518
Rp519
sg15
I64
sa(dp520
g2
I32
sg3
I8
sg4
g5
(g9
S'/\x00\xe1\x1bk\x1f\xbe\xbf'
p521
tp522
Rp523
sg15
I64
sa(dp524
g2
I32
sg3
I8
sg4
g5
(g9
S'`\xa1\x1b\x9f\xc4=\xc0\xbf'
p525
tp526
Rp527
sg15
I64
sa(dp528
g2
I32
sg3
I8
sg4
g5
(g9
S'\xc7\xb9\xe5\x10\x9ft\xbf\xbf'
p529
tp530
Rp531
sg15
I64
sa(dp532
g2
I32
sg3
I32
sg4
g5
(g9
S'\x03[t\xaa\x9a\xd0\xba\xbf'
p533
tp534
Rp535
sg15
I64
sa(dp536
g2
I32
sg3
I32
sg4
g5
(g9
S'\x8a\x93\x17e\x83j\xc0\xbf'
p537
tp538
Rp539
sg15
I64
sa(dp540
g2
I32
sg3
I32
sg4
g5
(g9
S'\xdb\xa4\xb31z\xc5\xb9\xbf'
p541
tp542
Rp543
sg15
I64
sa(dp544
g2
I32
sg3
I32
sg4
g5
(g9
S'O\xee*\x989!\xb4\xbf'
p545
tp546
Rp547
sg15
I64
sa(dp548
g2
I32
sg3
I32
sg4
g5
(g9
S'\xcf-m\x80v\xbf\xb6\xbf'
p549
tp550
Rp551
sg15
I64
sa(dp552
g2
I32
sg3
I32
sg4
g5
(g9
S'Mf\xaa\xdc\xfeH\xa1\xbf'
p553
tp554
Rp555
sg15
I64
sa(dp556
g2
I32
sg3
I32
sg4
g5
(g9
S'2?=\xd29\xcd\xaa\xbf'
p557
tp558
Rp559
sg15
I64
sa(dp560
g2
I32
sg3
I32
sg4
g5
(g9
S'\xa0\\\xbc\xf5b\xba\xb7\xbf'
p561
tp562
Rp563
sg15
I64
sa(dp564
g2
I32
sg3
I32
sg4
g5
(g9
S'\xcbl-\x07\xa1;\xb1\xbf'
p565
tp566
Rp567
sg15
I64
sa(dp568
g2
I32
sg3
I32
sg4
g5
(g9
S'\xba\x8d\xefYe\xec\xbc\xbf'
p569
tp570
Rp571
sg15
I64
sa(dp572
g2
I2
sg3
I8
sg4
g5
(g9
S"\x80\x86L'\xa5\x1f3>"
p573
tp574
Rp575
sg15
I128
sa(dp576
g2
I2
sg3
I8
sg4
g5
(g9
S'8[j;\xa1\xf7d>'
p577
tp578
Rp579
sg15
I128
sa(dp580
g2
I2
sg3
I8
sg4
g5
(g9
S'\xc0\xae\xc2"\xa8\x13\x13>'
p581
tp582
Rp583
sg15
I128
sa(dp584
g2
I2
sg3
I8
sg4
g5
(g9
S'\xc0\x8f%J\x05\x8bj>'
p585
tp586
Rp587
sg15
I128
sa(dp588
g2
I2
sg3
I8
sg4
g5
(g9
S'pJ\xc3\xa0\xe2yt>'
p589
tp590
Rp591
sg15
I128
sa(dp592
g2
I2
sg3
I8
sg4
g5
(g9
S'@\x87\xe1\xbb\xf8\xa9_>'
p593
tp594
Rp595
sg15
I128
sa(dp596
g2
I2
sg3
I8
sg4
g5
(g9
S'\xb02\x02\xe2n\x93}>'
p597
tp598
Rp599
sg15
I128
sa(dp600
g2
I2
sg3
I8
sg4
g5
(g9
S'\x80\x048O\xd0`U>'
p601
tp602
Rp603
sg15
I128
sa(dp604
g2
I2
sg3
I8
sg4
g5
(g9
S'\xb0\x0ccB\x1cBb>'
p605
tp606
Rp607
sg15
I128
sa(dp608
g2
I2
sg3
I8
sg4
g5
(g9
S'`\xa6\xc1\xdep7h>'
p609
tp610
Rp611
sg15
I128
sa(dp612
g2
I2
sg3
I32
sg4
g5
(g9
S'\x00\xef\xe4\xb8\x1b\xe3\x06>'
p613
tp614
Rp615
sg15
I128
sa(dp616
g2
I2
sg3
I32
sg4
g5
(g9
S'\xe09\x80\x0eH\x9e6>'
p617
tp618
Rp619
sg15
I128
sa(dp620
g2
I2
sg3
I32
sg4
g5
(g9
S'\x80\x93\xa3]9\xf5\xfd='
p621
tp622
Rp623
sg15
I128
sa(dp624
g2
I2
sg3
I32
sg4
g5
(g9
S'@\xe2\xb7\x94\xb0\xe0.>'
p625
tp626
Rp627
sg15
I128
sa(dp628
g2
I2
sg3
I32
sg4
g5
(g9
S'\x80\x9b\x08\x8eo\xa9\x08>'
p629
tp630
Rp631
sg15
I128
sa(dp632
g2
I2
sg3
I32
sg4
g5
(g9
S'\x00\x01\x92\x9c\x89\xa6\x0e>'
p633
tp634
Rp635
sg15
I128
sa(dp636
g2
I2
sg3
I32
sg4
g5
(g9
S'\x00 q\x1d\xe1K\x11>'
p637
tp638
Rp639
sg15
I128
sa(dp640
g2
I2
sg3
I32
sg4
g5
(g9
S'\x00&\x12\xb2\x86z\xdb='
p641
tp642
Rp643
sg15
I128
sa(dp644
g2
I2
sg3
I32
sg4
g5
(g9
S'\x00\\\xf3j=m\x19>'
p645
tp646
Rp647
sg15
I128
sa(dp648
g2
I2
sg3
I32
sg4
g5
(g9
S'\x80&V\xd16\xcb\x15>'
p649
tp650
Rp651
sg15
I128
sa(dp652
g2
I8
sg3
I8
sg4
g5
(g9
S'\xa2\xf5F\xb7\xa3\xf6(?'
p653
tp654
Rp655
sg15
I128
sa(dp656
g2
I8
sg3
I8
sg4
g5
(g9
S'm\xc43,\xea\x90+?'
p657
tp658
Rp659
sg15
I128
sa(dp660
g2
I8
sg3
I8
sg4
g5
(g9
S'\x8d\xc5\n\xaa\x0b\x8c\x18?'
p661
tp662
Rp663
sg15
I128
sa(dp664
g2
I8
sg3
I8
sg4
g5
(g9
S'\xd5\xdd\xc4m\xae\x89&?'
p665
tp666
Rp667
sg15
I128
sa(dp668
g2
I8
sg3
I8
sg4
g5
(g9
S']mU\xd0\xe1\x11*?'
p669
tp670
Rp671
sg15
I128
sa(dp672
g2
I8
sg3
I8
sg4
g5
(g9
S'\xe8#}\xbbb\x95%?'
p673
tp674
Rp675
sg15
I128
sa(dp676
g2
I8
sg3
I8
sg4
g5
(g9
S'j\xb4\x0b\x83?, ?'
p677
tp678
Rp679
sg15
I128
sa(dp680
g2
I8
sg3
I8
sg4
g5
(g9
S"Vr\x80h0W'?"
p681
tp682
Rp683
sg15
I128
sa(dp684
g2
I8
sg3
I8
sg4
g5
(g9
S'T7<\xde\xdb\x95\x19?'
p685
tp686
Rp687
sg15
I128
sa(dp688
g2
I8
sg3
I8
sg4
g5
(g9
S'P\x1a\xe9B\xc5\x02(?'
p689
tp690
Rp691
sg15
I128
sa(dp692
g2
I8
sg3
I32
sg4
g5
(g9
S'A\x99\xc1\x13\xde\x1a\xdd>'
p693
tp694
Rp695
sg15
I128
sa(dp696
g2
I8
sg3
I32
sg4
g5
(g9
S'\xca\x9d?`\xb8\xef\xca>'
p697
tp698
Rp699
sg15
I128
sa(dp700
g2
I8
sg3
I32
sg4
g5
(g9
S'\xc8\xfa\x08K\x95\x13\xd1>'
p701
tp702
Rp703
sg15
I128
sa(dp704
g2
I8
sg3
I32
sg4
g5
(g9
S'\x9eP^\x9c\x83]\xcd>'
p705
tp706
Rp707
sg15
I128
sa(dp708
g2
I8
sg3
I32
sg4
g5
(g9
S'\xa2\x91S\xae\xb4\x92\xdb>'
p709
tp710
Rp711
sg15
I128
sa(dp712
g2
I8
sg3
I32
sg4
g5
(g9
S'\xd2@\xf5\x80F\xe4\xe0>'
p713
tp714
Rp715
sg15
I128
sa(dp716
g2
I8
sg3
I32
sg4
g5
(g9
S'r\xa3u@\x01T\xd9>'
p717
tp718
Rp719
sg15
I128
sa(dp720
g2
I8
sg3
I32
sg4
g5
(g9
S'^R\xd3\xffK\xc0\xda>'
p721
tp722
Rp723
sg15
I128
sa(dp724
g2
I8
sg3
I32
sg4
g5
(g9
S'\xac\\\xf3XnY\xca>'
p725
tp726
Rp727
sg15
I128
sa(dp728
g2
I8
sg3
I32
sg4
g5
(g9
S'\x0b\x00\xfa!\xd6\xd4\xd1>'
p729
tp730
Rp731
sg15
I128
sa(dp732
g2
I32
sg3
I8
sg4
g5
(g9
S'[\xd5\x13\x19\x9dO\xa4\xbf'
p733
tp734
Rp735
sg15
I128
sa(dp736
g2
I32
sg3
I8
sg4
g5
(g9
S'L|\xb2P\x1bV\x9b\xbf'
p737
tp738
Rp739
sg15
I128
sa(dp740
g2
I32
sg3
I8
sg4
g5
(g9
S'\x92\x02\xd7\xecL\x81\xa1\xbf'
p741
tp742
Rp743
sg15
I128
sa(dp744
g2
I32
sg3
I8
sg4
g5
(g9
S'\xc8(j\x10 \xee\x9f\xbf'
p745
tp746
Rp747
sg15
I128
sa(dp748
g2
I32
sg3
I8
sg4
g5
(g9
S'\x08\x02\xce\xb2U\xbd\xa4\xbf'
p749
tp750
Rp751
sg15
I128
sa(dp752
g2
I32
sg3
I8
sg4
g5
(g9
S'|\xba\xa8|\x81\x02\xa3\xbf'
p753
tp754
Rp755
sg15
I128
sa(dp756
g2
I32
sg3
I8
sg4
g5
(g9
S'T\x0e\x81\xe2F.\xa6\xbf'
p757
tp758
Rp759
sg15
I128
sa(dp760
g2
I32
sg3
I8
sg4
g5
(g9
S'7i\x94<x_\xa3\xbf'
p761
tp762
Rp763
sg15
I128
sa(dp764
g2
I32
sg3
I8
sg4
g5
(g9
S'$\t\xa6Ea_\xa0\xbf'
p765
tp766
Rp767
sg15
I128
sa(dp768
g2
I32
sg3
I8
sg4
g5
(g9
S'\xaa\xfd\x12\x10\x98\xc0\x99\xbf'
p769
tp770
Rp771
sg15
I128
sa(dp772
g2
I32
sg3
I32
sg4
g5
(g9
S'_\x10\xacJ\x1e\x1dy\xbf'
p773
tp774
Rp775
sg15
I128
sa(dp776
g2
I32
sg3
I32
sg4
g5
(g9
S'L\x15\x9c\x18\xa4.\x90\xbf'
p777
tp778
Rp779
sg15
I128
sa(dp780
g2
I32
sg3
I32
sg4
g5
(g9
S'w\xb9=\x8c\xfd\xd9V\xbf'
p781
tp782
Rp783
sg15
I128
sa(dp784
g2
I32
sg3
I32
sg4
g5
(g9
S'Ew\x9d\xf0\xa5Hl\xbf'
p785
tp786
Rp787
sg15
I128
sa(dp788
g2
I32
sg3
I32
sg4
g5
(g9
S'\\\xc4\xbdH\xc5\xf6\x86\xbf'
p789
tp790
Rp791
sg15
I128
sa(dp792
g2
I32
sg3
I32
sg4
g5
(g9
S'\xd0*\xc8\xd7\x92a\x83\xbf'
p793
tp794
Rp795
sg15
I128
sa(dp796
g2
I32
sg3
I32
sg4
g5
(g9
S'\xf0\x89\xde\x80c\xe4\x86\xbf'
p797
tp798
Rp799
sg15
I128
sa(dp800
g2
I32
sg3
I32
sg4
g5
(g9
S'\x86\x8ct\xc8[N\x8a\xbf'
p801
tp802
Rp803
sg15
I128
sa(dp804
g2
I32
sg3
I32
sg4
g5
(g9
S'r\xa6\x89\x1cC@U\xbf'
p805
tp806
Rp807
sg15
I128
sa(dp808
g2
I32
sg3
I32
sg4
g5
(g9
S'm\xd1\xe2\xa0\x17s\x8d\xbf'
p809
tp810
Rp811
sg15
I128
sa.